Archive member included to satisfy reference by file (symbol)

c:/st/stm32cubeide_1.10.1/stm32cubeide/plugins/com.st.stm32cube.ide.mcu.externaltools.gnu-tools-for-stm32.10.3-2021.10.win32_1.0.0.202111181127/tools/bin/../lib/gcc/arm-none-eabi/10.3.1/../../../../arm-none-eabi/lib/thumb/v7e-m/nofp\libc_nano.a(lib_a-exit.o)
                              c:/st/stm32cubeide_1.10.1/stm32cubeide/plugins/com.st.stm32cube.ide.mcu.externaltools.gnu-tools-for-stm32.10.3-2021.10.win32_1.0.0.202111181127/tools/bin/../lib/gcc/arm-none-eabi/10.3.1/../../../../arm-none-eabi/lib/thumb/v7e-m/nofp/crt0.o (exit)
c:/st/stm32cubeide_1.10.1/stm32cubeide/plugins/com.st.stm32cube.ide.mcu.externaltools.gnu-tools-for-stm32.10.3-2021.10.win32_1.0.0.202111181127/tools/bin/../lib/gcc/arm-none-eabi/10.3.1/../../../../arm-none-eabi/lib/thumb/v7e-m/nofp\libc_nano.a(lib_a-impure.o)
                              c:/st/stm32cubeide_1.10.1/stm32cubeide/plugins/com.st.stm32cube.ide.mcu.externaltools.gnu-tools-for-stm32.10.3-2021.10.win32_1.0.0.202111181127/tools/bin/../lib/gcc/arm-none-eabi/10.3.1/../../../../arm-none-eabi/lib/thumb/v7e-m/nofp\libc_nano.a(lib_a-exit.o) (_global_impure_ptr)
c:/st/stm32cubeide_1.10.1/stm32cubeide/plugins/com.st.stm32cube.ide.mcu.externaltools.gnu-tools-for-stm32.10.3-2021.10.win32_1.0.0.202111181127/tools/bin/../lib/gcc/arm-none-eabi/10.3.1/../../../../arm-none-eabi/lib/thumb/v7e-m/nofp\libc_nano.a(lib_a-init.o)
                              c:/st/stm32cubeide_1.10.1/stm32cubeide/plugins/com.st.stm32cube.ide.mcu.externaltools.gnu-tools-for-stm32.10.3-2021.10.win32_1.0.0.202111181127/tools/bin/../lib/gcc/arm-none-eabi/10.3.1/../../../../arm-none-eabi/lib/thumb/v7e-m/nofp/crt0.o (__libc_init_array)
c:/st/stm32cubeide_1.10.1/stm32cubeide/plugins/com.st.stm32cube.ide.mcu.externaltools.gnu-tools-for-stm32.10.3-2021.10.win32_1.0.0.202111181127/tools/bin/../lib/gcc/arm-none-eabi/10.3.1/../../../../arm-none-eabi/lib/thumb/v7e-m/nofp\libc_nano.a(lib_a-memset.o)
                              c:/st/stm32cubeide_1.10.1/stm32cubeide/plugins/com.st.stm32cube.ide.mcu.externaltools.gnu-tools-for-stm32.10.3-2021.10.win32_1.0.0.202111181127/tools/bin/../lib/gcc/arm-none-eabi/10.3.1/../../../../arm-none-eabi/lib/thumb/v7e-m/nofp/crt0.o (memset)
c:/st/stm32cubeide_1.10.1/stm32cubeide/plugins/com.st.stm32cube.ide.mcu.externaltools.gnu-tools-for-stm32.10.3-2021.10.win32_1.0.0.202111181127/tools/bin/../lib/gcc/arm-none-eabi/10.3.1/../../../../arm-none-eabi/lib/thumb/v7e-m/nofp\libnosys.a(_exit.o)
                              c:/st/stm32cubeide_1.10.1/stm32cubeide/plugins/com.st.stm32cube.ide.mcu.externaltools.gnu-tools-for-stm32.10.3-2021.10.win32_1.0.0.202111181127/tools/bin/../lib/gcc/arm-none-eabi/10.3.1/../../../../arm-none-eabi/lib/thumb/v7e-m/nofp\libc_nano.a(lib_a-exit.o) (_exit)

Discarded input sections

 .text          0x0000000000000000        0x0 c:/st/stm32cubeide_1.10.1/stm32cubeide/plugins/com.st.stm32cube.ide.mcu.externaltools.gnu-tools-for-stm32.10.3-2021.10.win32_1.0.0.202111181127/tools/bin/../lib/gcc/arm-none-eabi/10.3.1/thumb/v7e-m/nofp/crti.o
 .data          0x0000000000000000        0x0 c:/st/stm32cubeide_1.10.1/stm32cubeide/plugins/com.st.stm32cube.ide.mcu.externaltools.gnu-tools-for-stm32.10.3-2021.10.win32_1.0.0.202111181127/tools/bin/../lib/gcc/arm-none-eabi/10.3.1/thumb/v7e-m/nofp/crti.o
 .bss           0x0000000000000000        0x0 c:/st/stm32cubeide_1.10.1/stm32cubeide/plugins/com.st.stm32cube.ide.mcu.externaltools.gnu-tools-for-stm32.10.3-2021.10.win32_1.0.0.202111181127/tools/bin/../lib/gcc/arm-none-eabi/10.3.1/thumb/v7e-m/nofp/crti.o
 .data          0x0000000000000000        0x4 c:/st/stm32cubeide_1.10.1/stm32cubeide/plugins/com.st.stm32cube.ide.mcu.externaltools.gnu-tools-for-stm32.10.3-2021.10.win32_1.0.0.202111181127/tools/bin/../lib/gcc/arm-none-eabi/10.3.1/thumb/v7e-m/nofp/crtbegin.o
 .rodata        0x0000000000000000       0x24 c:/st/stm32cubeide_1.10.1/stm32cubeide/plugins/com.st.stm32cube.ide.mcu.externaltools.gnu-tools-for-stm32.10.3-2021.10.win32_1.0.0.202111181127/tools/bin/../lib/gcc/arm-none-eabi/10.3.1/thumb/v7e-m/nofp/crtbegin.o
 .text          0x0000000000000000       0x7c c:/st/stm32cubeide_1.10.1/stm32cubeide/plugins/com.st.stm32cube.ide.mcu.externaltools.gnu-tools-for-stm32.10.3-2021.10.win32_1.0.0.202111181127/tools/bin/../lib/gcc/arm-none-eabi/10.3.1/../../../../arm-none-eabi/lib/thumb/v7e-m/nofp/crt0.o
 .data          0x0000000000000000        0x0 c:/st/stm32cubeide_1.10.1/stm32cubeide/plugins/com.st.stm32cube.ide.mcu.externaltools.gnu-tools-for-stm32.10.3-2021.10.win32_1.0.0.202111181127/tools/bin/../lib/gcc/arm-none-eabi/10.3.1/../../../../arm-none-eabi/lib/thumb/v7e-m/nofp/crt0.o
 .bss           0x0000000000000000        0x0 c:/st/stm32cubeide_1.10.1/stm32cubeide/plugins/com.st.stm32cube.ide.mcu.externaltools.gnu-tools-for-stm32.10.3-2021.10.win32_1.0.0.202111181127/tools/bin/../lib/gcc/arm-none-eabi/10.3.1/../../../../arm-none-eabi/lib/thumb/v7e-m/nofp/crt0.o
 .ARM.extab     0x0000000000000000        0x0 c:/st/stm32cubeide_1.10.1/stm32cubeide/plugins/com.st.stm32cube.ide.mcu.externaltools.gnu-tools-for-stm32.10.3-2021.10.win32_1.0.0.202111181127/tools/bin/../lib/gcc/arm-none-eabi/10.3.1/../../../../arm-none-eabi/lib/thumb/v7e-m/nofp/crt0.o
 .ARM.exidx     0x0000000000000000       0x10 c:/st/stm32cubeide_1.10.1/stm32cubeide/plugins/com.st.stm32cube.ide.mcu.externaltools.gnu-tools-for-stm32.10.3-2021.10.win32_1.0.0.202111181127/tools/bin/../lib/gcc/arm-none-eabi/10.3.1/../../../../arm-none-eabi/lib/thumb/v7e-m/nofp/crt0.o
 .ARM.attributes
                0x0000000000000000       0x1c c:/st/stm32cubeide_1.10.1/stm32cubeide/plugins/com.st.stm32cube.ide.mcu.externaltools.gnu-tools-for-stm32.10.3-2021.10.win32_1.0.0.202111181127/tools/bin/../lib/gcc/arm-none-eabi/10.3.1/../../../../arm-none-eabi/lib/thumb/v7e-m/nofp/crt0.o
 .group         0x0000000000000000        0xc ./app/src/main.o
 .group         0x0000000000000000        0xc ./app/src/main.o
 .group         0x0000000000000000        0xc ./app/src/main.o
 .group         0x0000000000000000        0xc ./app/src/main.o
 .group         0x0000000000000000        0xc ./app/src/main.o
 .group         0x0000000000000000        0xc ./app/src/main.o
 .group         0x0000000000000000        0xc ./app/src/main.o
 .group         0x0000000000000000        0xc ./app/src/main.o
 .group         0x0000000000000000        0xc ./app/src/main.o
 .group         0x0000000000000000        0xc ./app/src/main.o
 .group         0x0000000000000000        0xc ./app/src/main.o
 .group         0x0000000000000000        0xc ./app/src/main.o
 .group         0x0000000000000000        0xc ./app/src/main.o
 .group         0x0000000000000000        0xc ./app/src/main.o
 .group         0x0000000000000000        0xc ./app/src/main.o
 .group         0x0000000000000000        0xc ./app/src/main.o
 .group         0x0000000000000000        0xc ./app/src/main.o
 .group         0x0000000000000000        0xc ./app/src/main.o
 .group         0x0000000000000000        0xc ./app/src/main.o
 .group         0x0000000000000000        0xc ./app/src/main.o
 .group         0x0000000000000000        0xc ./app/src/main.o
 .group         0x0000000000000000        0xc ./app/src/main.o
 .group         0x0000000000000000        0xc ./app/src/main.o
 .group         0x0000000000000000        0xc ./app/src/main.o
 .group         0x0000000000000000        0xc ./app/src/main.o
 .group         0x0000000000000000        0xc ./app/src/main.o
 .group         0x0000000000000000        0xc ./app/src/main.o
 .group         0x0000000000000000        0xc ./app/src/main.o
 .group         0x0000000000000000        0xc ./app/src/main.o
 .group         0x0000000000000000        0xc ./app/src/main.o
 .group         0x0000000000000000        0xc ./app/src/main.o
 .group         0x0000000000000000        0xc ./app/src/main.o
 .group         0x0000000000000000        0xc ./app/src/main.o
 .group         0x0000000000000000        0xc ./app/src/main.o
 .group         0x0000000000000000        0xc ./app/src/main.o
 .group         0x0000000000000000        0xc ./app/src/main.o
 .group         0x0000000000000000        0xc ./app/src/main.o
 .group         0x0000000000000000        0xc ./app/src/main.o
 .group         0x0000000000000000        0xc ./app/src/main.o
 .group         0x0000000000000000        0xc ./app/src/main.o
 .group         0x0000000000000000        0xc ./app/src/main.o
 .text          0x0000000000000000        0x0 ./app/src/main.o
 .data          0x0000000000000000        0x0 ./app/src/main.o
 .bss           0x0000000000000000        0x0 ./app/src/main.o
 .rodata.helix  0x0000000000000000      0x400 ./app/src/main.o
 .bss.data      0x0000000000000000        0x1 ./app/src/main.o
 .bss.i         0x0000000000000000        0x1 ./app/src/main.o
 .bss.error     0x0000000000000000        0x4 ./app/src/main.o
 .text          0x0000000000000000       0x14 ./app/statup_stm32f303re.o
 .data          0x0000000000000000        0x0 ./app/statup_stm32f303re.o
 .bss           0x0000000000000000        0x0 ./app/statup_stm32f303re.o
 .group         0x0000000000000000        0xc ./display/display.o
 .group         0x0000000000000000        0xc ./display/display.o
 .group         0x0000000000000000        0xc ./display/display.o
 .group         0x0000000000000000        0xc ./display/display.o
 .group         0x0000000000000000        0xc ./display/display.o
 .group         0x0000000000000000        0xc ./display/display.o
 .group         0x0000000000000000        0xc ./display/display.o
 .group         0x0000000000000000        0xc ./display/display.o
 .group         0x0000000000000000        0xc ./display/display.o
 .group         0x0000000000000000        0xc ./display/display.o
 .group         0x0000000000000000        0xc ./display/display.o
 .group         0x0000000000000000        0xc ./display/display.o
 .group         0x0000000000000000        0xc ./display/display.o
 .group         0x0000000000000000        0xc ./display/display.o
 .group         0x0000000000000000        0xc ./display/display.o
 .group         0x0000000000000000        0xc ./display/display.o
 .group         0x0000000000000000        0xc ./display/display.o
 .group         0x0000000000000000        0xc ./display/display.o
 .group         0x0000000000000000        0xc ./display/display.o
 .group         0x0000000000000000        0xc ./display/display.o
 .group         0x0000000000000000        0xc ./display/display.o
 .group         0x0000000000000000        0xc ./display/display.o
 .group         0x0000000000000000        0xc ./display/display.o
 .group         0x0000000000000000        0xc ./display/display.o
 .group         0x0000000000000000        0xc ./display/display.o
 .group         0x0000000000000000        0xc ./display/display.o
 .group         0x0000000000000000        0xc ./display/display.o
 .group         0x0000000000000000        0xc ./display/display.o
 .group         0x0000000000000000        0xc ./display/display.o
 .group         0x0000000000000000        0xc ./display/display.o
 .group         0x0000000000000000        0xc ./display/display.o
 .group         0x0000000000000000        0xc ./display/display.o
 .group         0x0000000000000000        0xc ./display/display.o
 .group         0x0000000000000000        0xc ./display/display.o
 .group         0x0000000000000000        0xc ./display/display.o
 .group         0x0000000000000000        0xc ./display/display.o
 .group         0x0000000000000000        0xc ./display/display.o
 .group         0x0000000000000000        0xc ./display/display.o
 .text          0x0000000000000000        0x0 ./display/display.o
 .data          0x0000000000000000        0x0 ./display/display.o
 .bss           0x0000000000000000        0x0 ./display/display.o
 .text.Display_Puts
                0x0000000000000000       0x4a ./display/display.o
 .text.Display_Clear
                0x0000000000000000       0x1e ./display/display.o
 .text.Display_ON
                0x0000000000000000       0x40 ./display/display.o
 .text.Display_OFF
                0x0000000000000000       0x40 ./display/display.o
 .debug_macro   0x0000000000000000      0xa5a ./display/display.o
 .debug_macro   0x0000000000000000       0x34 ./display/display.o
 .debug_macro   0x0000000000000000       0x28 ./display/display.o
 .debug_macro   0x0000000000000000       0x22 ./display/display.o
 .debug_macro   0x0000000000000000       0x8e ./display/display.o
 .debug_macro   0x0000000000000000       0x51 ./display/display.o
 .debug_macro   0x0000000000000000      0x103 ./display/display.o
 .debug_macro   0x0000000000000000       0x6a ./display/display.o
 .debug_macro   0x0000000000000000      0x1df ./display/display.o
 .debug_macro   0x0000000000000000       0x1c ./display/display.o
 .debug_macro   0x0000000000000000       0x22 ./display/display.o
 .debug_macro   0x0000000000000000       0xd9 ./display/display.o
 .debug_macro   0x0000000000000000     0x102d ./display/display.o
 .debug_macro   0x0000000000000000      0x11f ./display/display.o
 .debug_macro   0x0000000000000000    0x1535a ./display/display.o
 .debug_macro   0x0000000000000000       0x6d ./display/display.o
 .debug_macro   0x0000000000000000       0x52 ./display/display.o
 .debug_macro   0x0000000000000000       0x18 ./display/display.o
 .debug_macro   0x0000000000000000       0x3c ./display/display.o
 .debug_macro   0x0000000000000000       0x34 ./display/display.o
 .debug_macro   0x0000000000000000      0x174 ./display/display.o
 .debug_macro   0x0000000000000000       0x16 ./display/display.o
 .debug_macro   0x0000000000000000       0x43 ./display/display.o
 .debug_macro   0x0000000000000000       0x34 ./display/display.o
 .debug_macro   0x0000000000000000       0x10 ./display/display.o
 .debug_macro   0x0000000000000000       0x58 ./display/display.o
 .debug_macro   0x0000000000000000       0x71 ./display/display.o
 .debug_macro   0x0000000000000000       0x1c ./display/display.o
 .debug_macro   0x0000000000000000      0x12a ./display/display.o
 .debug_macro   0x0000000000000000      0x341 ./display/display.o
 .debug_macro   0x0000000000000000       0x10 ./display/display.o
 .debug_macro   0x0000000000000000       0x35 ./display/display.o
 .debug_macro   0x0000000000000000       0x20 ./display/display.o
 .debug_macro   0x0000000000000000       0x10 ./display/display.o
 .debug_macro   0x0000000000000000       0x16 ./display/display.o
 .debug_macro   0x0000000000000000       0x16 ./display/display.o
 .debug_macro   0x0000000000000000       0x29 ./display/display.o
 .debug_macro   0x0000000000000000       0x16 ./display/display.o
 .group         0x0000000000000000        0xc ./display/fonts.o
 .group         0x0000000000000000        0xc ./display/fonts.o
 .group         0x0000000000000000        0xc ./display/fonts.o
 .group         0x0000000000000000        0xc ./display/fonts.o
 .group         0x0000000000000000        0xc ./display/fonts.o
 .group         0x0000000000000000        0xc ./display/fonts.o
 .group         0x0000000000000000        0xc ./display/fonts.o
 .group         0x0000000000000000        0xc ./display/fonts.o
 .group         0x0000000000000000        0xc ./display/fonts.o
 .group         0x0000000000000000        0xc ./display/fonts.o
 .group         0x0000000000000000        0xc ./display/fonts.o
 .group         0x0000000000000000        0xc ./display/fonts.o
 .group         0x0000000000000000        0xc ./display/fonts.o
 .group         0x0000000000000000        0xc ./display/fonts.o
 .group         0x0000000000000000        0xc ./display/fonts.o
 .group         0x0000000000000000        0xc ./display/fonts.o
 .group         0x0000000000000000        0xc ./display/fonts.o
 .group         0x0000000000000000        0xc ./display/fonts.o
 .group         0x0000000000000000        0xc ./display/fonts.o
 .group         0x0000000000000000        0xc ./display/fonts.o
 .group         0x0000000000000000        0xc ./display/fonts.o
 .group         0x0000000000000000        0xc ./display/fonts.o
 .group         0x0000000000000000        0xc ./display/fonts.o
 .group         0x0000000000000000        0xc ./display/fonts.o
 .group         0x0000000000000000        0xc ./display/fonts.o
 .group         0x0000000000000000        0xc ./display/fonts.o
 .group         0x0000000000000000        0xc ./display/fonts.o
 .group         0x0000000000000000        0xc ./display/fonts.o
 .group         0x0000000000000000        0xc ./display/fonts.o
 .group         0x0000000000000000        0xc ./display/fonts.o
 .group         0x0000000000000000        0xc ./display/fonts.o
 .group         0x0000000000000000        0xc ./display/fonts.o
 .group         0x0000000000000000        0xc ./display/fonts.o
 .group         0x0000000000000000        0xc ./display/fonts.o
 .text          0x0000000000000000        0x0 ./display/fonts.o
 .data          0x0000000000000000        0x0 ./display/fonts.o
 .bss           0x0000000000000000        0x0 ./display/fonts.o
 .debug_macro   0x0000000000000000      0xa5a ./display/fonts.o
 .debug_macro   0x0000000000000000       0x34 ./display/fonts.o
 .debug_macro   0x0000000000000000       0x28 ./display/fonts.o
 .debug_macro   0x0000000000000000       0x22 ./display/fonts.o
 .debug_macro   0x0000000000000000       0x8e ./display/fonts.o
 .debug_macro   0x0000000000000000       0x51 ./display/fonts.o
 .debug_macro   0x0000000000000000      0x103 ./display/fonts.o
 .debug_macro   0x0000000000000000       0x6a ./display/fonts.o
 .debug_macro   0x0000000000000000      0x1df ./display/fonts.o
 .debug_macro   0x0000000000000000       0x1c ./display/fonts.o
 .debug_macro   0x0000000000000000       0x22 ./display/fonts.o
 .debug_macro   0x0000000000000000       0xd9 ./display/fonts.o
 .debug_macro   0x0000000000000000     0x102d ./display/fonts.o
 .debug_macro   0x0000000000000000      0x11f ./display/fonts.o
 .debug_macro   0x0000000000000000    0x1535a ./display/fonts.o
 .debug_macro   0x0000000000000000       0x6d ./display/fonts.o
 .debug_macro   0x0000000000000000       0x52 ./display/fonts.o
 .debug_macro   0x0000000000000000       0x18 ./display/fonts.o
 .debug_macro   0x0000000000000000       0x3c ./display/fonts.o
 .debug_macro   0x0000000000000000       0x34 ./display/fonts.o
 .debug_macro   0x0000000000000000      0x174 ./display/fonts.o
 .debug_macro   0x0000000000000000       0x16 ./display/fonts.o
 .debug_macro   0x0000000000000000       0x43 ./display/fonts.o
 .debug_macro   0x0000000000000000       0x34 ./display/fonts.o
 .debug_macro   0x0000000000000000       0x10 ./display/fonts.o
 .debug_macro   0x0000000000000000       0x58 ./display/fonts.o
 .debug_macro   0x0000000000000000       0x71 ./display/fonts.o
 .debug_macro   0x0000000000000000       0x1c ./display/fonts.o
 .debug_macro   0x0000000000000000      0x12a ./display/fonts.o
 .debug_macro   0x0000000000000000      0x341 ./display/fonts.o
 .debug_macro   0x0000000000000000       0x10 ./display/fonts.o
 .debug_macro   0x0000000000000000       0x35 ./display/fonts.o
 .debug_macro   0x0000000000000000       0x20 ./display/fonts.o
 .debug_macro   0x0000000000000000       0x10 ./display/fonts.o
 .group         0x0000000000000000        0xc ./driver/src/gpio.o
 .group         0x0000000000000000        0xc ./driver/src/gpio.o
 .group         0x0000000000000000        0xc ./driver/src/gpio.o
 .group         0x0000000000000000        0xc ./driver/src/gpio.o
 .group         0x0000000000000000        0xc ./driver/src/gpio.o
 .group         0x0000000000000000        0xc ./driver/src/gpio.o
 .group         0x0000000000000000        0xc ./driver/src/gpio.o
 .group         0x0000000000000000        0xc ./driver/src/gpio.o
 .group         0x0000000000000000        0xc ./driver/src/gpio.o
 .group         0x0000000000000000        0xc ./driver/src/gpio.o
 .group         0x0000000000000000        0xc ./driver/src/gpio.o
 .group         0x0000000000000000        0xc ./driver/src/gpio.o
 .group         0x0000000000000000        0xc ./driver/src/gpio.o
 .group         0x0000000000000000        0xc ./driver/src/gpio.o
 .group         0x0000000000000000        0xc ./driver/src/gpio.o
 .group         0x0000000000000000        0xc ./driver/src/gpio.o
 .group         0x0000000000000000        0xc ./driver/src/gpio.o
 .text          0x0000000000000000        0x0 ./driver/src/gpio.o
 .data          0x0000000000000000        0x0 ./driver/src/gpio.o
 .bss           0x0000000000000000        0x0 ./driver/src/gpio.o
 .debug_macro   0x0000000000000000      0xa5a ./driver/src/gpio.o
 .debug_macro   0x0000000000000000       0x28 ./driver/src/gpio.o
 .debug_macro   0x0000000000000000       0x22 ./driver/src/gpio.o
 .debug_macro   0x0000000000000000       0x8e ./driver/src/gpio.o
 .debug_macro   0x0000000000000000       0x51 ./driver/src/gpio.o
 .debug_macro   0x0000000000000000      0x103 ./driver/src/gpio.o
 .debug_macro   0x0000000000000000       0x6a ./driver/src/gpio.o
 .debug_macro   0x0000000000000000      0x1df ./driver/src/gpio.o
 .debug_macro   0x0000000000000000       0x1c ./driver/src/gpio.o
 .debug_macro   0x0000000000000000       0x22 ./driver/src/gpio.o
 .debug_macro   0x0000000000000000       0xd9 ./driver/src/gpio.o
 .debug_macro   0x0000000000000000     0x102d ./driver/src/gpio.o
 .debug_macro   0x0000000000000000      0x11f ./driver/src/gpio.o
 .debug_macro   0x0000000000000000    0x1535a ./driver/src/gpio.o
 .debug_macro   0x0000000000000000       0x34 ./driver/src/gpio.o
 .debug_macro   0x0000000000000000       0x6d ./driver/src/gpio.o
 .debug_macro   0x0000000000000000       0x34 ./driver/src/gpio.o
 .group         0x0000000000000000        0xc ./driver/src/i2c.o
 .group         0x0000000000000000        0xc ./driver/src/i2c.o
 .group         0x0000000000000000        0xc ./driver/src/i2c.o
 .group         0x0000000000000000        0xc ./driver/src/i2c.o
 .group         0x0000000000000000        0xc ./driver/src/i2c.o
 .group         0x0000000000000000        0xc ./driver/src/i2c.o
 .group         0x0000000000000000        0xc ./driver/src/i2c.o
 .group         0x0000000000000000        0xc ./driver/src/i2c.o
 .group         0x0000000000000000        0xc ./driver/src/i2c.o
 .group         0x0000000000000000        0xc ./driver/src/i2c.o
 .group         0x0000000000000000        0xc ./driver/src/i2c.o
 .group         0x0000000000000000        0xc ./driver/src/i2c.o
 .group         0x0000000000000000        0xc ./driver/src/i2c.o
 .group         0x0000000000000000        0xc ./driver/src/i2c.o
 .group         0x0000000000000000        0xc ./driver/src/i2c.o
 .group         0x0000000000000000        0xc ./driver/src/i2c.o
 .group         0x0000000000000000        0xc ./driver/src/i2c.o
 .text          0x0000000000000000        0x0 ./driver/src/i2c.o
 .data          0x0000000000000000        0x0 ./driver/src/i2c.o
 .bss           0x0000000000000000        0x0 ./driver/src/i2c.o
 .text.search_address
                0x0000000000000000       0xd6 ./driver/src/i2c.o
 .debug_macro   0x0000000000000000      0xa5a ./driver/src/i2c.o
 .debug_macro   0x0000000000000000       0x34 ./driver/src/i2c.o
 .debug_macro   0x0000000000000000       0x28 ./driver/src/i2c.o
 .debug_macro   0x0000000000000000       0x22 ./driver/src/i2c.o
 .debug_macro   0x0000000000000000       0x8e ./driver/src/i2c.o
 .debug_macro   0x0000000000000000       0x51 ./driver/src/i2c.o
 .debug_macro   0x0000000000000000      0x103 ./driver/src/i2c.o
 .debug_macro   0x0000000000000000       0x6a ./driver/src/i2c.o
 .debug_macro   0x0000000000000000      0x1df ./driver/src/i2c.o
 .debug_macro   0x0000000000000000       0x1c ./driver/src/i2c.o
 .debug_macro   0x0000000000000000       0x22 ./driver/src/i2c.o
 .debug_macro   0x0000000000000000       0xd9 ./driver/src/i2c.o
 .debug_macro   0x0000000000000000     0x102d ./driver/src/i2c.o
 .debug_macro   0x0000000000000000      0x11f ./driver/src/i2c.o
 .debug_macro   0x0000000000000000    0x1535a ./driver/src/i2c.o
 .debug_macro   0x0000000000000000       0x6d ./driver/src/i2c.o
 .group         0x0000000000000000        0xc ./keypad/keypad.o
 .group         0x0000000000000000        0xc ./keypad/keypad.o
 .group         0x0000000000000000        0xc ./keypad/keypad.o
 .group         0x0000000000000000        0xc ./keypad/keypad.o
 .group         0x0000000000000000        0xc ./keypad/keypad.o
 .group         0x0000000000000000        0xc ./keypad/keypad.o
 .group         0x0000000000000000        0xc ./keypad/keypad.o
 .group         0x0000000000000000        0xc ./keypad/keypad.o
 .group         0x0000000000000000        0xc ./keypad/keypad.o
 .group         0x0000000000000000        0xc ./keypad/keypad.o
 .group         0x0000000000000000        0xc ./keypad/keypad.o
 .group         0x0000000000000000        0xc ./keypad/keypad.o
 .group         0x0000000000000000        0xc ./keypad/keypad.o
 .group         0x0000000000000000        0xc ./keypad/keypad.o
 .group         0x0000000000000000        0xc ./keypad/keypad.o
 .group         0x0000000000000000        0xc ./keypad/keypad.o
 .group         0x0000000000000000        0xc ./keypad/keypad.o
 .text          0x0000000000000000        0x0 ./keypad/keypad.o
 .data          0x0000000000000000        0x0 ./keypad/keypad.o
 .bss           0x0000000000000000        0x0 ./keypad/keypad.o
 .debug_macro   0x0000000000000000      0xa5a ./keypad/keypad.o
 .debug_macro   0x0000000000000000       0x34 ./keypad/keypad.o
 .debug_macro   0x0000000000000000       0x28 ./keypad/keypad.o
 .debug_macro   0x0000000000000000       0x22 ./keypad/keypad.o
 .debug_macro   0x0000000000000000       0x8e ./keypad/keypad.o
 .debug_macro   0x0000000000000000       0x51 ./keypad/keypad.o
 .debug_macro   0x0000000000000000      0x103 ./keypad/keypad.o
 .debug_macro   0x0000000000000000       0x6a ./keypad/keypad.o
 .debug_macro   0x0000000000000000      0x1df ./keypad/keypad.o
 .debug_macro   0x0000000000000000       0x1c ./keypad/keypad.o
 .debug_macro   0x0000000000000000       0x22 ./keypad/keypad.o
 .debug_macro   0x0000000000000000       0xd9 ./keypad/keypad.o
 .debug_macro   0x0000000000000000     0x102d ./keypad/keypad.o
 .debug_macro   0x0000000000000000      0x11f ./keypad/keypad.o
 .debug_macro   0x0000000000000000    0x1535a ./keypad/keypad.o
 .debug_macro   0x0000000000000000       0x6d ./keypad/keypad.o
 .debug_macro   0x0000000000000000       0x34 ./keypad/keypad.o
 .group         0x0000000000000000        0xc ./rtc/rtc.o
 .group         0x0000000000000000        0xc ./rtc/rtc.o
 .group         0x0000000000000000        0xc ./rtc/rtc.o
 .group         0x0000000000000000        0xc ./rtc/rtc.o
 .group         0x0000000000000000        0xc ./rtc/rtc.o
 .group         0x0000000000000000        0xc ./rtc/rtc.o
 .group         0x0000000000000000        0xc ./rtc/rtc.o
 .group         0x0000000000000000        0xc ./rtc/rtc.o
 .group         0x0000000000000000        0xc ./rtc/rtc.o
 .group         0x0000000000000000        0xc ./rtc/rtc.o
 .group         0x0000000000000000        0xc ./rtc/rtc.o
 .group         0x0000000000000000        0xc ./rtc/rtc.o
 .group         0x0000000000000000        0xc ./rtc/rtc.o
 .group         0x0000000000000000        0xc ./rtc/rtc.o
 .group         0x0000000000000000        0xc ./rtc/rtc.o
 .group         0x0000000000000000        0xc ./rtc/rtc.o
 .text          0x0000000000000000        0x0 ./rtc/rtc.o
 .data          0x0000000000000000        0x0 ./rtc/rtc.o
 .bss           0x0000000000000000        0x0 ./rtc/rtc.o
 .debug_macro   0x0000000000000000      0xa5a ./rtc/rtc.o
 .debug_macro   0x0000000000000000       0x28 ./rtc/rtc.o
 .debug_macro   0x0000000000000000       0x22 ./rtc/rtc.o
 .debug_macro   0x0000000000000000       0x8e ./rtc/rtc.o
 .debug_macro   0x0000000000000000       0x51 ./rtc/rtc.o
 .debug_macro   0x0000000000000000      0x103 ./rtc/rtc.o
 .debug_macro   0x0000000000000000       0x6a ./rtc/rtc.o
 .debug_macro   0x0000000000000000      0x1df ./rtc/rtc.o
 .debug_macro   0x0000000000000000       0x1c ./rtc/rtc.o
 .debug_macro   0x0000000000000000       0x22 ./rtc/rtc.o
 .debug_macro   0x0000000000000000       0xd9 ./rtc/rtc.o
 .debug_macro   0x0000000000000000     0x102d ./rtc/rtc.o
 .debug_macro   0x0000000000000000      0x11f ./rtc/rtc.o
 .debug_macro   0x0000000000000000    0x1535a ./rtc/rtc.o
 .debug_macro   0x0000000000000000       0x2e ./rtc/rtc.o
 .debug_macro   0x0000000000000000       0x64 ./rtc/rtc.o
 .text          0x0000000000000000        0x0 c:/st/stm32cubeide_1.10.1/stm32cubeide/plugins/com.st.stm32cube.ide.mcu.externaltools.gnu-tools-for-stm32.10.3-2021.10.win32_1.0.0.202111181127/tools/bin/../lib/gcc/arm-none-eabi/10.3.1/../../../../arm-none-eabi/lib/thumb/v7e-m/nofp\libc_nano.a(lib_a-exit.o)
 .data          0x0000000000000000        0x0 c:/st/stm32cubeide_1.10.1/stm32cubeide/plugins/com.st.stm32cube.ide.mcu.externaltools.gnu-tools-for-stm32.10.3-2021.10.win32_1.0.0.202111181127/tools/bin/../lib/gcc/arm-none-eabi/10.3.1/../../../../arm-none-eabi/lib/thumb/v7e-m/nofp\libc_nano.a(lib_a-exit.o)
 .bss           0x0000000000000000        0x0 c:/st/stm32cubeide_1.10.1/stm32cubeide/plugins/com.st.stm32cube.ide.mcu.externaltools.gnu-tools-for-stm32.10.3-2021.10.win32_1.0.0.202111181127/tools/bin/../lib/gcc/arm-none-eabi/10.3.1/../../../../arm-none-eabi/lib/thumb/v7e-m/nofp\libc_nano.a(lib_a-exit.o)
 .text.exit     0x0000000000000000       0x28 c:/st/stm32cubeide_1.10.1/stm32cubeide/plugins/com.st.stm32cube.ide.mcu.externaltools.gnu-tools-for-stm32.10.3-2021.10.win32_1.0.0.202111181127/tools/bin/../lib/gcc/arm-none-eabi/10.3.1/../../../../arm-none-eabi/lib/thumb/v7e-m/nofp\libc_nano.a(lib_a-exit.o)
 .debug_frame   0x0000000000000000       0x28 c:/st/stm32cubeide_1.10.1/stm32cubeide/plugins/com.st.stm32cube.ide.mcu.externaltools.gnu-tools-for-stm32.10.3-2021.10.win32_1.0.0.202111181127/tools/bin/../lib/gcc/arm-none-eabi/10.3.1/../../../../arm-none-eabi/lib/thumb/v7e-m/nofp\libc_nano.a(lib_a-exit.o)
 .ARM.attributes
                0x0000000000000000       0x2e c:/st/stm32cubeide_1.10.1/stm32cubeide/plugins/com.st.stm32cube.ide.mcu.externaltools.gnu-tools-for-stm32.10.3-2021.10.win32_1.0.0.202111181127/tools/bin/../lib/gcc/arm-none-eabi/10.3.1/../../../../arm-none-eabi/lib/thumb/v7e-m/nofp\libc_nano.a(lib_a-exit.o)
 .text          0x0000000000000000        0x0 c:/st/stm32cubeide_1.10.1/stm32cubeide/plugins/com.st.stm32cube.ide.mcu.externaltools.gnu-tools-for-stm32.10.3-2021.10.win32_1.0.0.202111181127/tools/bin/../lib/gcc/arm-none-eabi/10.3.1/../../../../arm-none-eabi/lib/thumb/v7e-m/nofp\libc_nano.a(lib_a-impure.o)
 .data          0x0000000000000000        0x0 c:/st/stm32cubeide_1.10.1/stm32cubeide/plugins/com.st.stm32cube.ide.mcu.externaltools.gnu-tools-for-stm32.10.3-2021.10.win32_1.0.0.202111181127/tools/bin/../lib/gcc/arm-none-eabi/10.3.1/../../../../arm-none-eabi/lib/thumb/v7e-m/nofp\libc_nano.a(lib_a-impure.o)
 .bss           0x0000000000000000        0x0 c:/st/stm32cubeide_1.10.1/stm32cubeide/plugins/com.st.stm32cube.ide.mcu.externaltools.gnu-tools-for-stm32.10.3-2021.10.win32_1.0.0.202111181127/tools/bin/../lib/gcc/arm-none-eabi/10.3.1/../../../../arm-none-eabi/lib/thumb/v7e-m/nofp\libc_nano.a(lib_a-impure.o)
 .data._impure_ptr
                0x0000000000000000        0x4 c:/st/stm32cubeide_1.10.1/stm32cubeide/plugins/com.st.stm32cube.ide.mcu.externaltools.gnu-tools-for-stm32.10.3-2021.10.win32_1.0.0.202111181127/tools/bin/../lib/gcc/arm-none-eabi/10.3.1/../../../../arm-none-eabi/lib/thumb/v7e-m/nofp\libc_nano.a(lib_a-impure.o)
 .data.impure_data
                0x0000000000000000       0x60 c:/st/stm32cubeide_1.10.1/stm32cubeide/plugins/com.st.stm32cube.ide.mcu.externaltools.gnu-tools-for-stm32.10.3-2021.10.win32_1.0.0.202111181127/tools/bin/../lib/gcc/arm-none-eabi/10.3.1/../../../../arm-none-eabi/lib/thumb/v7e-m/nofp\libc_nano.a(lib_a-impure.o)
 .rodata._global_impure_ptr
                0x0000000000000000        0x4 c:/st/stm32cubeide_1.10.1/stm32cubeide/plugins/com.st.stm32cube.ide.mcu.externaltools.gnu-tools-for-stm32.10.3-2021.10.win32_1.0.0.202111181127/tools/bin/../lib/gcc/arm-none-eabi/10.3.1/../../../../arm-none-eabi/lib/thumb/v7e-m/nofp\libc_nano.a(lib_a-impure.o)
 .ARM.attributes
                0x0000000000000000       0x2e c:/st/stm32cubeide_1.10.1/stm32cubeide/plugins/com.st.stm32cube.ide.mcu.externaltools.gnu-tools-for-stm32.10.3-2021.10.win32_1.0.0.202111181127/tools/bin/../lib/gcc/arm-none-eabi/10.3.1/../../../../arm-none-eabi/lib/thumb/v7e-m/nofp\libc_nano.a(lib_a-impure.o)
 .text          0x0000000000000000        0x0 c:/st/stm32cubeide_1.10.1/stm32cubeide/plugins/com.st.stm32cube.ide.mcu.externaltools.gnu-tools-for-stm32.10.3-2021.10.win32_1.0.0.202111181127/tools/bin/../lib/gcc/arm-none-eabi/10.3.1/../../../../arm-none-eabi/lib/thumb/v7e-m/nofp\libc_nano.a(lib_a-init.o)
 .data          0x0000000000000000        0x0 c:/st/stm32cubeide_1.10.1/stm32cubeide/plugins/com.st.stm32cube.ide.mcu.externaltools.gnu-tools-for-stm32.10.3-2021.10.win32_1.0.0.202111181127/tools/bin/../lib/gcc/arm-none-eabi/10.3.1/../../../../arm-none-eabi/lib/thumb/v7e-m/nofp\libc_nano.a(lib_a-init.o)
 .bss           0x0000000000000000        0x0 c:/st/stm32cubeide_1.10.1/stm32cubeide/plugins/com.st.stm32cube.ide.mcu.externaltools.gnu-tools-for-stm32.10.3-2021.10.win32_1.0.0.202111181127/tools/bin/../lib/gcc/arm-none-eabi/10.3.1/../../../../arm-none-eabi/lib/thumb/v7e-m/nofp\libc_nano.a(lib_a-init.o)
 .text          0x0000000000000000        0x0 c:/st/stm32cubeide_1.10.1/stm32cubeide/plugins/com.st.stm32cube.ide.mcu.externaltools.gnu-tools-for-stm32.10.3-2021.10.win32_1.0.0.202111181127/tools/bin/../lib/gcc/arm-none-eabi/10.3.1/../../../../arm-none-eabi/lib/thumb/v7e-m/nofp\libc_nano.a(lib_a-memset.o)
 .data          0x0000000000000000        0x0 c:/st/stm32cubeide_1.10.1/stm32cubeide/plugins/com.st.stm32cube.ide.mcu.externaltools.gnu-tools-for-stm32.10.3-2021.10.win32_1.0.0.202111181127/tools/bin/../lib/gcc/arm-none-eabi/10.3.1/../../../../arm-none-eabi/lib/thumb/v7e-m/nofp\libc_nano.a(lib_a-memset.o)
 .bss           0x0000000000000000        0x0 c:/st/stm32cubeide_1.10.1/stm32cubeide/plugins/com.st.stm32cube.ide.mcu.externaltools.gnu-tools-for-stm32.10.3-2021.10.win32_1.0.0.202111181127/tools/bin/../lib/gcc/arm-none-eabi/10.3.1/../../../../arm-none-eabi/lib/thumb/v7e-m/nofp\libc_nano.a(lib_a-memset.o)
 .text          0x0000000000000000        0x0 c:/st/stm32cubeide_1.10.1/stm32cubeide/plugins/com.st.stm32cube.ide.mcu.externaltools.gnu-tools-for-stm32.10.3-2021.10.win32_1.0.0.202111181127/tools/bin/../lib/gcc/arm-none-eabi/10.3.1/../../../../arm-none-eabi/lib/thumb/v7e-m/nofp\libnosys.a(_exit.o)
 .data          0x0000000000000000        0x0 c:/st/stm32cubeide_1.10.1/stm32cubeide/plugins/com.st.stm32cube.ide.mcu.externaltools.gnu-tools-for-stm32.10.3-2021.10.win32_1.0.0.202111181127/tools/bin/../lib/gcc/arm-none-eabi/10.3.1/../../../../arm-none-eabi/lib/thumb/v7e-m/nofp\libnosys.a(_exit.o)
 .bss           0x0000000000000000        0x0 c:/st/stm32cubeide_1.10.1/stm32cubeide/plugins/com.st.stm32cube.ide.mcu.externaltools.gnu-tools-for-stm32.10.3-2021.10.win32_1.0.0.202111181127/tools/bin/../lib/gcc/arm-none-eabi/10.3.1/../../../../arm-none-eabi/lib/thumb/v7e-m/nofp\libnosys.a(_exit.o)
 .text._exit    0x0000000000000000        0x2 c:/st/stm32cubeide_1.10.1/stm32cubeide/plugins/com.st.stm32cube.ide.mcu.externaltools.gnu-tools-for-stm32.10.3-2021.10.win32_1.0.0.202111181127/tools/bin/../lib/gcc/arm-none-eabi/10.3.1/../../../../arm-none-eabi/lib/thumb/v7e-m/nofp\libnosys.a(_exit.o)
 .debug_frame   0x0000000000000000       0x20 c:/st/stm32cubeide_1.10.1/stm32cubeide/plugins/com.st.stm32cube.ide.mcu.externaltools.gnu-tools-for-stm32.10.3-2021.10.win32_1.0.0.202111181127/tools/bin/../lib/gcc/arm-none-eabi/10.3.1/../../../../arm-none-eabi/lib/thumb/v7e-m/nofp\libnosys.a(_exit.o)
 .ARM.attributes
                0x0000000000000000       0x2e c:/st/stm32cubeide_1.10.1/stm32cubeide/plugins/com.st.stm32cube.ide.mcu.externaltools.gnu-tools-for-stm32.10.3-2021.10.win32_1.0.0.202111181127/tools/bin/../lib/gcc/arm-none-eabi/10.3.1/../../../../arm-none-eabi/lib/thumb/v7e-m/nofp\libnosys.a(_exit.o)
 .text          0x0000000000000000        0x0 c:/st/stm32cubeide_1.10.1/stm32cubeide/plugins/com.st.stm32cube.ide.mcu.externaltools.gnu-tools-for-stm32.10.3-2021.10.win32_1.0.0.202111181127/tools/bin/../lib/gcc/arm-none-eabi/10.3.1/thumb/v7e-m/nofp/crtend.o
 .data          0x0000000000000000        0x0 c:/st/stm32cubeide_1.10.1/stm32cubeide/plugins/com.st.stm32cube.ide.mcu.externaltools.gnu-tools-for-stm32.10.3-2021.10.win32_1.0.0.202111181127/tools/bin/../lib/gcc/arm-none-eabi/10.3.1/thumb/v7e-m/nofp/crtend.o
 .bss           0x0000000000000000        0x0 c:/st/stm32cubeide_1.10.1/stm32cubeide/plugins/com.st.stm32cube.ide.mcu.externaltools.gnu-tools-for-stm32.10.3-2021.10.win32_1.0.0.202111181127/tools/bin/../lib/gcc/arm-none-eabi/10.3.1/thumb/v7e-m/nofp/crtend.o
 .rodata        0x0000000000000000       0x24 c:/st/stm32cubeide_1.10.1/stm32cubeide/plugins/com.st.stm32cube.ide.mcu.externaltools.gnu-tools-for-stm32.10.3-2021.10.win32_1.0.0.202111181127/tools/bin/../lib/gcc/arm-none-eabi/10.3.1/thumb/v7e-m/nofp/crtend.o
 .eh_frame      0x0000000000000000        0x4 c:/st/stm32cubeide_1.10.1/stm32cubeide/plugins/com.st.stm32cube.ide.mcu.externaltools.gnu-tools-for-stm32.10.3-2021.10.win32_1.0.0.202111181127/tools/bin/../lib/gcc/arm-none-eabi/10.3.1/thumb/v7e-m/nofp/crtend.o
 .ARM.attributes
                0x0000000000000000       0x2e c:/st/stm32cubeide_1.10.1/stm32cubeide/plugins/com.st.stm32cube.ide.mcu.externaltools.gnu-tools-for-stm32.10.3-2021.10.win32_1.0.0.202111181127/tools/bin/../lib/gcc/arm-none-eabi/10.3.1/thumb/v7e-m/nofp/crtend.o
 .text          0x0000000000000000        0x0 c:/st/stm32cubeide_1.10.1/stm32cubeide/plugins/com.st.stm32cube.ide.mcu.externaltools.gnu-tools-for-stm32.10.3-2021.10.win32_1.0.0.202111181127/tools/bin/../lib/gcc/arm-none-eabi/10.3.1/thumb/v7e-m/nofp/crtn.o
 .data          0x0000000000000000        0x0 c:/st/stm32cubeide_1.10.1/stm32cubeide/plugins/com.st.stm32cube.ide.mcu.externaltools.gnu-tools-for-stm32.10.3-2021.10.win32_1.0.0.202111181127/tools/bin/../lib/gcc/arm-none-eabi/10.3.1/thumb/v7e-m/nofp/crtn.o
 .bss           0x0000000000000000        0x0 c:/st/stm32cubeide_1.10.1/stm32cubeide/plugins/com.st.stm32cube.ide.mcu.externaltools.gnu-tools-for-stm32.10.3-2021.10.win32_1.0.0.202111181127/tools/bin/../lib/gcc/arm-none-eabi/10.3.1/thumb/v7e-m/nofp/crtn.o

Memory Configuration

Name             Origin             Length             Attributes
FLASH            0x0000000008000000 0x0000000000080000 xr
RAM              0x0000000020000000 0x0000000000010000 xrw
CCMRAM           0x0000000010000000 0x0000000000004000 rw
*default*        0x0000000000000000 0xffffffffffffffff

Linker script and memory map

LOAD c:/st/stm32cubeide_1.10.1/stm32cubeide/plugins/com.st.stm32cube.ide.mcu.externaltools.gnu-tools-for-stm32.10.3-2021.10.win32_1.0.0.202111181127/tools/bin/../lib/gcc/arm-none-eabi/10.3.1/thumb/v7e-m/nofp/crti.o
LOAD c:/st/stm32cubeide_1.10.1/stm32cubeide/plugins/com.st.stm32cube.ide.mcu.externaltools.gnu-tools-for-stm32.10.3-2021.10.win32_1.0.0.202111181127/tools/bin/../lib/gcc/arm-none-eabi/10.3.1/thumb/v7e-m/nofp/crtbegin.o
LOAD c:/st/stm32cubeide_1.10.1/stm32cubeide/plugins/com.st.stm32cube.ide.mcu.externaltools.gnu-tools-for-stm32.10.3-2021.10.win32_1.0.0.202111181127/tools/bin/../lib/gcc/arm-none-eabi/10.3.1/../../../../arm-none-eabi/lib/thumb/v7e-m/nofp/crt0.o
LOAD ./app/src/main.o
LOAD ./app/statup_stm32f303re.o
LOAD ./display/display.o
LOAD ./display/fonts.o
LOAD ./driver/src/gpio.o
LOAD ./driver/src/i2c.o
LOAD ./keypad/keypad.o
LOAD ./rtc/rtc.o
START GROUP
LOAD c:/st/stm32cubeide_1.10.1/stm32cubeide/plugins/com.st.stm32cube.ide.mcu.externaltools.gnu-tools-for-stm32.10.3-2021.10.win32_1.0.0.202111181127/tools/bin/../lib/gcc/arm-none-eabi/10.3.1/../../../../arm-none-eabi/lib/thumb/v7e-m/nofp\libc_nano.a
LOAD c:/st/stm32cubeide_1.10.1/stm32cubeide/plugins/com.st.stm32cube.ide.mcu.externaltools.gnu-tools-for-stm32.10.3-2021.10.win32_1.0.0.202111181127/tools/bin/../lib/gcc/arm-none-eabi/10.3.1/../../../../arm-none-eabi/lib/thumb/v7e-m/nofp\libm.a
END GROUP
START GROUP
LOAD c:/st/stm32cubeide_1.10.1/stm32cubeide/plugins/com.st.stm32cube.ide.mcu.externaltools.gnu-tools-for-stm32.10.3-2021.10.win32_1.0.0.202111181127/tools/bin/../lib/gcc/arm-none-eabi/10.3.1/thumb/v7e-m/nofp\libgcc.a
LOAD c:/st/stm32cubeide_1.10.1/stm32cubeide/plugins/com.st.stm32cube.ide.mcu.externaltools.gnu-tools-for-stm32.10.3-2021.10.win32_1.0.0.202111181127/tools/bin/../lib/gcc/arm-none-eabi/10.3.1/../../../../arm-none-eabi/lib/thumb/v7e-m/nofp\libc_nano.a
END GROUP
START GROUP
LOAD c:/st/stm32cubeide_1.10.1/stm32cubeide/plugins/com.st.stm32cube.ide.mcu.externaltools.gnu-tools-for-stm32.10.3-2021.10.win32_1.0.0.202111181127/tools/bin/../lib/gcc/arm-none-eabi/10.3.1/thumb/v7e-m/nofp\libgcc.a
LOAD c:/st/stm32cubeide_1.10.1/stm32cubeide/plugins/com.st.stm32cube.ide.mcu.externaltools.gnu-tools-for-stm32.10.3-2021.10.win32_1.0.0.202111181127/tools/bin/../lib/gcc/arm-none-eabi/10.3.1/../../../../arm-none-eabi/lib/thumb/v7e-m/nofp\libc_nano.a
LOAD c:/st/stm32cubeide_1.10.1/stm32cubeide/plugins/com.st.stm32cube.ide.mcu.externaltools.gnu-tools-for-stm32.10.3-2021.10.win32_1.0.0.202111181127/tools/bin/../lib/gcc/arm-none-eabi/10.3.1/../../../../arm-none-eabi/lib/thumb/v7e-m/nofp\libnosys.a
END GROUP
START GROUP
LOAD c:/st/stm32cubeide_1.10.1/stm32cubeide/plugins/com.st.stm32cube.ide.mcu.externaltools.gnu-tools-for-stm32.10.3-2021.10.win32_1.0.0.202111181127/tools/bin/../lib/gcc/arm-none-eabi/10.3.1/thumb/v7e-m/nofp\libgcc.a
LOAD c:/st/stm32cubeide_1.10.1/stm32cubeide/plugins/com.st.stm32cube.ide.mcu.externaltools.gnu-tools-for-stm32.10.3-2021.10.win32_1.0.0.202111181127/tools/bin/../lib/gcc/arm-none-eabi/10.3.1/../../../../arm-none-eabi/lib/thumb/v7e-m/nofp\libc_nano.a
LOAD c:/st/stm32cubeide_1.10.1/stm32cubeide/plugins/com.st.stm32cube.ide.mcu.externaltools.gnu-tools-for-stm32.10.3-2021.10.win32_1.0.0.202111181127/tools/bin/../lib/gcc/arm-none-eabi/10.3.1/../../../../arm-none-eabi/lib/thumb/v7e-m/nofp\libnosys.a
END GROUP
LOAD c:/st/stm32cubeide_1.10.1/stm32cubeide/plugins/com.st.stm32cube.ide.mcu.externaltools.gnu-tools-for-stm32.10.3-2021.10.win32_1.0.0.202111181127/tools/bin/../lib/gcc/arm-none-eabi/10.3.1/thumb/v7e-m/nofp/crtend.o
LOAD c:/st/stm32cubeide_1.10.1/stm32cubeide/plugins/com.st.stm32cube.ide.mcu.externaltools.gnu-tools-for-stm32.10.3-2021.10.win32_1.0.0.202111181127/tools/bin/../lib/gcc/arm-none-eabi/10.3.1/thumb/v7e-m/nofp/crtn.o
                0x0000000020010000                _estack = 0x20010000
                0x0000000000000200                _Min_Heap_Size = 0x200
                0x0000000000000400                _Min_Stack_Size = 0x400

.isr_vector     0x0000000008000000      0x194
                0x0000000008000000                . = ALIGN (0x4)
 *(.isr_vector)
 .isr_vector    0x0000000008000000      0x194 ./app/statup_stm32f303re.o
                0x0000000008000000                g_pfnVectors
                0x0000000008000194                . = ALIGN (0x4)

.text           0x0000000008000194     0x1848
                0x0000000008000194                . = ALIGN (0x4)
 *(.text)
 .text          0x0000000008000194       0x40 c:/st/stm32cubeide_1.10.1/stm32cubeide/plugins/com.st.stm32cube.ide.mcu.externaltools.gnu-tools-for-stm32.10.3-2021.10.win32_1.0.0.202111181127/tools/bin/../lib/gcc/arm-none-eabi/10.3.1/thumb/v7e-m/nofp/crtbegin.o
 *(.text*)
 .text.__NVIC_SetPriority
                0x00000000080001d4       0x54 ./app/src/main.o
 .text.main     0x0000000008000228      0x194 ./app/src/main.o
                0x0000000008000228                main
 .text.systick_enable
                0x00000000080003bc       0x3c ./app/src/main.o
                0x00000000080003bc                systick_enable
 .text.SysTick_Handler
                0x00000000080003f8       0x1c ./app/src/main.o
                0x00000000080003f8                SysTick_Handler
 .text.delay_ms
                0x0000000008000414       0x2a ./app/src/main.o
                0x0000000008000414                delay_ms
 *fill*         0x000000000800043e        0x2 
 .text.get_mtick
                0x0000000008000440       0x14 ./app/src/main.o
                0x0000000008000440                get_mtick
 .text.Reset_Handler
                0x0000000008000454       0x4c ./app/statup_stm32f303re.o
                0x0000000008000454                Reset_Handler
 .text.Default_Handler
                0x00000000080004a0        0x2 ./app/statup_stm32f303re.o
                0x00000000080004a0                RTC_Alarm_IRQHandler
                0x00000000080004a0                TIM8_TRG_COM_IRQHandler
                0x00000000080004a0                TIM8_CC_IRQHandler
                0x00000000080004a0                DebugMon_Handler
                0x00000000080004a0                SPI4_IRQHandler
                0x00000000080004a0                TIM1_CC_IRQHandler
                0x00000000080004a0                HardFault_Handler
                0x00000000080004a0                USB_HP_IRQHandler
                0x00000000080004a0                PVD_IRQHandler
                0x00000000080004a0                TAMP_STAMP_IRQHandler
                0x00000000080004a0                PendSV_Handler
                0x00000000080004a0                NMI_Handler
                0x00000000080004a0                EXTI3_IRQHandler
                0x00000000080004a0                I2C3_ER_IRQHandler
                0x00000000080004a0                USB_HP_CAN_TX_IRQHandler
                0x00000000080004a0                EXTI0_IRQHandler
                0x00000000080004a0                I2C2_EV_IRQHandler
                0x00000000080004a0                FPU_IRQHandler
                0x00000000080004a0                TIM1_UP_TIM16_IRQHandler
                0x00000000080004a0                UsageFault_Handler
                0x00000000080004a0                ADC1_2_IRQHandler
                0x00000000080004a0                SPI1_IRQHandler
                0x00000000080004a0                CAN_SCE_IRQHandler
                0x00000000080004a0                TIM6_DAC_IRQHandler
                0x00000000080004a0                TIM8_UP_IRQHandler
                0x00000000080004a0                DMA2_Channel2_IRQHandler
                0x00000000080004a0                DMA1_Channel4_IRQHandler
                0x00000000080004a0                TIM20_TRG_COM_IRQHandler
                0x00000000080004a0                USART3_IRQHandler
                0x00000000080004a0                DMA1_Channel7_IRQHandler
                0x00000000080004a0                UART5_IRQHandler
                0x00000000080004a0                ADC3_IRQHandler
                0x00000000080004a0                TIM4_IRQHandler
                0x00000000080004a0                CAN_RX1_IRQHandler
                0x00000000080004a0                DMA2_Channel1_IRQHandler
                0x00000000080004a0                I2C1_EV_IRQHandler
                0x00000000080004a0                DMA1_Channel6_IRQHandler
                0x00000000080004a0                UART4_IRQHandler
                0x00000000080004a0                DMA2_Channel4_IRQHandler
                0x00000000080004a0                TIM3_IRQHandler
                0x00000000080004a0                RCC_IRQHandler
                0x00000000080004a0                TIM20_UP_IRQHandler
                0x00000000080004a0                DMA1_Channel1_IRQHandler
                0x00000000080004a0                Default_Handler
                0x00000000080004a0                USBWakeUp_RMP_IRQHandler
                0x00000000080004a0                EXTI15_10_IRQHandler
                0x00000000080004a0                TIM7_IRQHandler
                0x00000000080004a0                I2C3_EV_IRQHandler
                0x00000000080004a0                EXTI9_5_IRQHandler
                0x00000000080004a0                RTC_WKUP_IRQHandler
                0x00000000080004a0                SPI2_IRQHandler
                0x00000000080004a0                USB_LP_CAN_RX0_IRQHandler
                0x00000000080004a0                MemManage_Handler
                0x00000000080004a0                SVC_Handler
                0x00000000080004a0                DMA2_Channel5_IRQHandler
                0x00000000080004a0                DMA1_Channel5_IRQHandler
                0x00000000080004a0                USB_LP_IRQHandler
                0x00000000080004a0                EXTI4_IRQHandler
                0x00000000080004a0                TIM1_TRG_COM_TIM17_IRQHandler
                0x00000000080004a0                DMA1_Channel3_IRQHandler
                0x00000000080004a0                ADC4_IRQHandler
                0x00000000080004a0                WWDG_IRQHandler
                0x00000000080004a0                TIM2_IRQHandler
                0x00000000080004a0                COMP7_IRQHandler
                0x00000000080004a0                COMP1_2_3_IRQHandler
                0x00000000080004a0                EXTI1_IRQHandler
                0x00000000080004a0                USART2_IRQHandler
                0x00000000080004a0                COMP4_5_6_IRQHandler
                0x00000000080004a0                TIM20_BRK_IRQHandler
                0x00000000080004a0                I2C2_ER_IRQHandler
                0x00000000080004a0                DMA1_Channel2_IRQHandler
                0x00000000080004a0                TIM8_BRK_IRQHandler
                0x00000000080004a0                FLASH_IRQHandler
                0x00000000080004a0                TIM20_CC_IRQHandler
                0x00000000080004a0                BusFault_Handler
                0x00000000080004a0                USART1_IRQHandler
                0x00000000080004a0                SPI3_IRQHandler
                0x00000000080004a0                I2C1_ER_IRQHandler
                0x00000000080004a0                FMC_IRQHandler
                0x00000000080004a0                USBWakeUp_IRQHandler
                0x00000000080004a0                DMA2_Channel3_IRQHandler
                0x00000000080004a0                EXTI2_TSC_IRQHandler
                0x00000000080004a0                TIM1_BRK_TIM15_IRQHandler
 .text.Display_DrawBitmap
                0x00000000080004a2       0xc0 ./display/display.o
                0x00000000080004a2                Display_DrawBitmap
 .text.Display_Init
                0x0000000008000562      0x21c ./display/display.o
                0x0000000008000562                Display_Init
 .text.Display_UpdateScreen
                0x000000000800077e       0x70 ./display/display.o
                0x000000000800077e                Display_UpdateScreen
 .text.Display_Fill
                0x00000000080007ee       0x2e ./display/display.o
                0x00000000080007ee                Display_Fill
 .text.Display_DrawPixel
                0x000000000800081c       0xca ./display/display.o
                0x000000000800081c                Display_DrawPixel
 .text.Display_GotoXY
                0x00000000080008e6       0x2a ./display/display.o
                0x00000000080008e6                Display_GotoXY
 .text.Display_Putc
                0x0000000008000910      0x10e ./display/display.o
                0x0000000008000910                Display_Putc
 .text.Display_I2C_WriteMulti
                0x0000000008000a1e      0x11a ./display/display.o
                0x0000000008000a1e                Display_I2C_WriteMulti
 .text.Display_I2C_Write
                0x0000000008000b38       0xae ./display/display.o
                0x0000000008000b38                Display_I2C_Write
 *fill*         0x0000000008000be6        0x2 
 .text.Display_printTime
                0x0000000008000be8      0x208 ./display/display.o
                0x0000000008000be8                Display_printTime
 .text.gpio_clock_enable
                0x0000000008000df0       0xe0 ./driver/src/gpio.o
                0x0000000008000df0                gpio_clock_enable
 .text.reset_io
                0x0000000008000ed0       0x2a ./driver/src/gpio.o
                0x0000000008000ed0                reset_io
 .text.gpio_config_pin
                0x0000000008000efa       0x6e ./driver/src/gpio.o
                0x0000000008000efa                gpio_config_pin
 .text.gpio_set_pinState
                0x0000000008000f68       0x46 ./driver/src/gpio.o
                0x0000000008000f68                gpio_set_pinState
 *fill*         0x0000000008000fae        0x2 
 .text.I2C_Init
                0x0000000008000fb0      0x1dc ./driver/src/i2c.o
                0x0000000008000fb0                I2C_Init
 .text.I2C_Write
                0x000000000800118c      0x11e ./driver/src/i2c.o
                0x000000000800118c                I2C_Write
 .text.I2C_Read
                0x00000000080012aa       0xa0 ./driver/src/i2c.o
                0x00000000080012aa                I2C_Read
 *fill*         0x000000000800134a        0x2 
 .text.keypad_init
                0x000000000800134c       0x34 ./keypad/keypad.o
                0x000000000800134c                keypad_init
 .text.keypad_config_key_direction
                0x0000000008001380       0xd8 ./keypad/keypad.o
 .text.keypad_inverse_pin_direction
                0x0000000008001458       0xd8 ./keypad/keypad.o
 .text.keypad_get_pressedkey
                0x0000000008001530      0x164 ./keypad/keypad.o
                0x0000000008001530                keypad_get_pressedkey
 .text.rtc_write_reg
                0x0000000008001694       0x38 ./rtc/rtc.o
 .text.rtc_read_reg
                0x00000000080016cc       0x44 ./rtc/rtc.o
 .text.rtc_init
                0x0000000008001710       0x1c ./rtc/rtc.o
                0x0000000008001710                rtc_init
 .text.rtc_I2C_TimeOffset
                0x000000000800172c       0x5c ./rtc/rtc.o
                0x000000000800172c                rtc_I2C_TimeOffset
 .text.rtc_I2c_ReadAll
                0x0000000008001788       0x64 ./rtc/rtc.o
                0x0000000008001788                rtc_I2c_ReadAll
 .text.rtc_I2C_Calculate
                0x00000000080017ec      0x17e ./rtc/rtc.o
                0x00000000080017ec                rtc_I2C_Calculate
 *fill*         0x000000000800196a        0x2 
 .text.__libc_init_array
                0x000000000800196c       0x48 c:/st/stm32cubeide_1.10.1/stm32cubeide/plugins/com.st.stm32cube.ide.mcu.externaltools.gnu-tools-for-stm32.10.3-2021.10.win32_1.0.0.202111181127/tools/bin/../lib/gcc/arm-none-eabi/10.3.1/../../../../arm-none-eabi/lib/thumb/v7e-m/nofp\libc_nano.a(lib_a-init.o)
                0x000000000800196c                __libc_init_array
 .text.memset   0x00000000080019b4       0x10 c:/st/stm32cubeide_1.10.1/stm32cubeide/plugins/com.st.stm32cube.ide.mcu.externaltools.gnu-tools-for-stm32.10.3-2021.10.win32_1.0.0.202111181127/tools/bin/../lib/gcc/arm-none-eabi/10.3.1/../../../../arm-none-eabi/lib/thumb/v7e-m/nofp\libc_nano.a(lib_a-memset.o)
                0x00000000080019b4                memset
 *(.glue_7)
 .glue_7        0x00000000080019c4        0x0 linker stubs
 *(.glue_7t)
 .glue_7t       0x00000000080019c4        0x0 linker stubs
 *(.eh_frame)
 .eh_frame      0x00000000080019c4        0x0 c:/st/stm32cubeide_1.10.1/stm32cubeide/plugins/com.st.stm32cube.ide.mcu.externaltools.gnu-tools-for-stm32.10.3-2021.10.win32_1.0.0.202111181127/tools/bin/../lib/gcc/arm-none-eabi/10.3.1/thumb/v7e-m/nofp/crtbegin.o
 *(.init)
 .init          0x00000000080019c4        0x4 c:/st/stm32cubeide_1.10.1/stm32cubeide/plugins/com.st.stm32cube.ide.mcu.externaltools.gnu-tools-for-stm32.10.3-2021.10.win32_1.0.0.202111181127/tools/bin/../lib/gcc/arm-none-eabi/10.3.1/thumb/v7e-m/nofp/crti.o
                0x00000000080019c4                _init
 .init          0x00000000080019c8        0x8 c:/st/stm32cubeide_1.10.1/stm32cubeide/plugins/com.st.stm32cube.ide.mcu.externaltools.gnu-tools-for-stm32.10.3-2021.10.win32_1.0.0.202111181127/tools/bin/../lib/gcc/arm-none-eabi/10.3.1/thumb/v7e-m/nofp/crtn.o
 *(.fini)
 .fini          0x00000000080019d0        0x4 c:/st/stm32cubeide_1.10.1/stm32cubeide/plugins/com.st.stm32cube.ide.mcu.externaltools.gnu-tools-for-stm32.10.3-2021.10.win32_1.0.0.202111181127/tools/bin/../lib/gcc/arm-none-eabi/10.3.1/thumb/v7e-m/nofp/crti.o
                0x00000000080019d0                _fini
 .fini          0x00000000080019d4        0x8 c:/st/stm32cubeide_1.10.1/stm32cubeide/plugins/com.st.stm32cube.ide.mcu.externaltools.gnu-tools-for-stm32.10.3-2021.10.win32_1.0.0.202111181127/tools/bin/../lib/gcc/arm-none-eabi/10.3.1/thumb/v7e-m/nofp/crtn.o
                0x00000000080019dc                . = ALIGN (0x4)
                0x00000000080019dc                _etext = .

.vfp11_veneer   0x00000000080019dc        0x0
 .vfp11_veneer  0x00000000080019dc        0x0 linker stubs

.v4_bx          0x00000000080019dc        0x0
 .v4_bx         0x00000000080019dc        0x0 linker stubs

.iplt           0x00000000080019dc        0x0
 .iplt          0x00000000080019dc        0x0 c:/st/stm32cubeide_1.10.1/stm32cubeide/plugins/com.st.stm32cube.ide.mcu.externaltools.gnu-tools-for-stm32.10.3-2021.10.win32_1.0.0.202111181127/tools/bin/../lib/gcc/arm-none-eabi/10.3.1/thumb/v7e-m/nofp/crtbegin.o

.rodata         0x00000000080019dc     0x1cc8
                0x00000000080019dc                . = ALIGN (0x4)
 *(.rodata)
 *(.rodata*)
 .rodata.looping
                0x00000000080019dc      0x400 ./app/src/main.o
                0x00000000080019dc                looping
 .rodata.alarm_logo
                0x0000000008001ddc      0x400 ./app/src/main.o
                0x0000000008001ddc                alarm_logo
 .rodata.Font7x10
                0x00000000080021dc      0x76c ./display/fonts.o
 .rodata.Font11x18
                0x0000000008002948      0xd5c ./display/fonts.o
                0x00000000080036a4                . = ALIGN (0x4)

.rel.dyn        0x00000000080036a4        0x0
 .rel.iplt      0x00000000080036a4        0x0 c:/st/stm32cubeide_1.10.1/stm32cubeide/plugins/com.st.stm32cube.ide.mcu.externaltools.gnu-tools-for-stm32.10.3-2021.10.win32_1.0.0.202111181127/tools/bin/../lib/gcc/arm-none-eabi/10.3.1/thumb/v7e-m/nofp/crtbegin.o

.ARM.extab
 *(.ARM.extab* .gnu.linkonce.armextab.*)

.ARM            0x00000000080036a4        0x0
                0x00000000080036a4                __exidx_start = .
 *(.ARM.exidx*)
                0x00000000080036a4                __exidx_end = .

.preinit_array  0x00000000080036a4        0x0
                0x00000000080036a4                PROVIDE (__preinit_array_start = .)
 *(.preinit_array*)
                0x00000000080036a4                PROVIDE (__preinit_array_end = .)

.init_array     0x00000000080036a4        0x4
                0x00000000080036a4                PROVIDE (__init_array_start = .)
 *(SORT_BY_NAME(.init_array.*))
 *(.init_array*)
 .init_array    0x00000000080036a4        0x4 c:/st/stm32cubeide_1.10.1/stm32cubeide/plugins/com.st.stm32cube.ide.mcu.externaltools.gnu-tools-for-stm32.10.3-2021.10.win32_1.0.0.202111181127/tools/bin/../lib/gcc/arm-none-eabi/10.3.1/thumb/v7e-m/nofp/crtbegin.o
                0x00000000080036a8                PROVIDE (__init_array_end = .)

.fini_array     0x00000000080036a8        0x4
                [!provide]                        PROVIDE (__fini_array_start = .)
 *(SORT_BY_NAME(.fini_array.*))
 *(.fini_array*)
 .fini_array    0x00000000080036a8        0x4 c:/st/stm32cubeide_1.10.1/stm32cubeide/plugins/com.st.stm32cube.ide.mcu.externaltools.gnu-tools-for-stm32.10.3-2021.10.win32_1.0.0.202111181127/tools/bin/../lib/gcc/arm-none-eabi/10.3.1/thumb/v7e-m/nofp/crtbegin.o
                [!provide]                        PROVIDE (__fini_array_end = .)
                0x00000000080036ac                _sidata = LOADADDR (.data)

.data           0x0000000020000000       0x24 load address 0x00000000080036ac
                0x0000000020000000                . = ALIGN (0x4)
                0x0000000020000000                _sdata = .
 *(.data)
 *(.data*)
 .data.SystemCoreClock_
                0x0000000020000000        0x4 ./app/src/main.o
                0x0000000020000000                SystemCoreClock_
 .data.Font_7x10
                0x0000000020000004        0x8 ./display/fonts.o
                0x0000000020000004                Font_7x10
 .data.Font_11x18
                0x000000002000000c        0x8 ./display/fonts.o
                0x000000002000000c                Font_11x18
 .data.keys     0x0000000020000014       0x10 ./keypad/keypad.o
                0x0000000020000014                keys
                0x0000000020000024                . = ALIGN (0x4)
                0x0000000020000024                _edata = .
                0x00000000080036d0                _siccmram = LOADADDR (.ccmram)

.igot.plt       0x0000000020000024        0x0 load address 0x00000000080036d0
 .igot.plt      0x0000000020000024        0x0 c:/st/stm32cubeide_1.10.1/stm32cubeide/plugins/com.st.stm32cube.ide.mcu.externaltools.gnu-tools-for-stm32.10.3-2021.10.win32_1.0.0.202111181127/tools/bin/../lib/gcc/arm-none-eabi/10.3.1/thumb/v7e-m/nofp/crtbegin.o

.ccmram         0x0000000010000000        0x0 load address 0x00000000080036d0
                0x0000000010000000                . = ALIGN (0x4)
                0x0000000010000000                _sccmram = .
 *(.ccmram)
 *(.ccmram*)
                0x0000000010000000                . = ALIGN (0x4)
                0x0000000010000000                _eccmram = .
                0x0000000010000000                . = ALIGN (0x4)

.bss            0x0000000020000024      0xc54
                0x0000000020000024                _sbss = .
                0x0000000020000024                __bss_start__ = _sbss
 *(.bss)
 .bss           0x0000000020000024       0x1c c:/st/stm32cubeide_1.10.1/stm32cubeide/plugins/com.st.stm32cube.ide.mcu.externaltools.gnu-tools-for-stm32.10.3-2021.10.win32_1.0.0.202111181127/tools/bin/../lib/gcc/arm-none-eabi/10.3.1/thumb/v7e-m/nofp/crtbegin.o
 *(.bss*)
 .bss.mtick     0x0000000020000040        0x4 ./app/src/main.o
                0x0000000020000040                mtick
 .bss.lcd1      0x0000000020000044      0x40c ./app/src/main.o
                0x0000000020000044                lcd1
 .bss.lcd2      0x0000000020000450      0x40c ./app/src/main.o
                0x0000000020000450                lcd2
 .bss.lcd3      0x000000002000085c      0x40c ./app/src/main.o
                0x000000002000085c                lcd3
 .bss.keypad_port
                0x0000000020000c68        0x4 ./keypad/keypad.o
                0x0000000020000c68                keypad_port
 .bss.start_pin
                0x0000000020000c6c        0x4 ./keypad/keypad.o
                0x0000000020000c6c                start_pin
 .bss.state     0x0000000020000c70        0x1 ./keypad/keypad.o
                0x0000000020000c70                state
 *fill*         0x0000000020000c71        0x3 
 .bss.rtc_i2c   0x0000000020000c74        0x4 ./rtc/rtc.o
                0x0000000020000c74                rtc_i2c
 *(COMMON)
                0x0000000020000c78                . = ALIGN (0x4)
                0x0000000020000c78                _ebss = .
                0x0000000020000c78                __bss_end__ = _ebss

._user_heap_stack
                0x0000000020000c78      0x600
                0x0000000020000c78                . = ALIGN (0x8)
                [!provide]                        PROVIDE (end = .)
                [!provide]                        PROVIDE (_end = .)
                0x0000000020000e78                . = (. + _Min_Heap_Size)
 *fill*         0x0000000020000c78      0x200 
                0x0000000020001278                . = (. + _Min_Stack_Size)
 *fill*         0x0000000020000e78      0x400 
                0x0000000020001278                . = ALIGN (0x8)

/DISCARD/
 libc.a(*)
 libm.a(*)
 libgcc.a(*)

.ARM.attributes
                0x0000000000000000       0x2a
 *(.ARM.attributes)
 .ARM.attributes
                0x0000000000000000       0x1e c:/st/stm32cubeide_1.10.1/stm32cubeide/plugins/com.st.stm32cube.ide.mcu.externaltools.gnu-tools-for-stm32.10.3-2021.10.win32_1.0.0.202111181127/tools/bin/../lib/gcc/arm-none-eabi/10.3.1/thumb/v7e-m/nofp/crti.o
 .ARM.attributes
                0x000000000000001e       0x2e c:/st/stm32cubeide_1.10.1/stm32cubeide/plugins/com.st.stm32cube.ide.mcu.externaltools.gnu-tools-for-stm32.10.3-2021.10.win32_1.0.0.202111181127/tools/bin/../lib/gcc/arm-none-eabi/10.3.1/thumb/v7e-m/nofp/crtbegin.o
 .ARM.attributes
                0x000000000000004c       0x2e ./app/src/main.o
 .ARM.attributes
                0x000000000000007a       0x21 ./app/statup_stm32f303re.o
 .ARM.attributes
                0x000000000000009b       0x2e ./display/display.o
 .ARM.attributes
                0x00000000000000c9       0x2e ./display/fonts.o
 .ARM.attributes
                0x00000000000000f7       0x2e ./driver/src/gpio.o
 .ARM.attributes
                0x0000000000000125       0x2e ./driver/src/i2c.o
 .ARM.attributes
                0x0000000000000153       0x2e ./keypad/keypad.o
 .ARM.attributes
                0x0000000000000181       0x2e ./rtc/rtc.o
 .ARM.attributes
                0x00000000000001af       0x2e c:/st/stm32cubeide_1.10.1/stm32cubeide/plugins/com.st.stm32cube.ide.mcu.externaltools.gnu-tools-for-stm32.10.3-2021.10.win32_1.0.0.202111181127/tools/bin/../lib/gcc/arm-none-eabi/10.3.1/../../../../arm-none-eabi/lib/thumb/v7e-m/nofp\libc_nano.a(lib_a-init.o)
 .ARM.attributes
                0x00000000000001dd       0x2e c:/st/stm32cubeide_1.10.1/stm32cubeide/plugins/com.st.stm32cube.ide.mcu.externaltools.gnu-tools-for-stm32.10.3-2021.10.win32_1.0.0.202111181127/tools/bin/../lib/gcc/arm-none-eabi/10.3.1/../../../../arm-none-eabi/lib/thumb/v7e-m/nofp\libc_nano.a(lib_a-memset.o)
 .ARM.attributes
                0x000000000000020b       0x1e c:/st/stm32cubeide_1.10.1/stm32cubeide/plugins/com.st.stm32cube.ide.mcu.externaltools.gnu-tools-for-stm32.10.3-2021.10.win32_1.0.0.202111181127/tools/bin/../lib/gcc/arm-none-eabi/10.3.1/thumb/v7e-m/nofp/crtn.o
OUTPUT(WiSe2223_GruppeK3_s_Projektaufgabe_Digitaluhr.elf elf32-littlearm)
LOAD linker stubs
LOAD c:/st/stm32cubeide_1.10.1/stm32cubeide/plugins/com.st.stm32cube.ide.mcu.externaltools.gnu-tools-for-stm32.10.3-2021.10.win32_1.0.0.202111181127/tools/bin/../lib/gcc/arm-none-eabi/10.3.1/../../../../arm-none-eabi/lib/thumb/v7e-m/nofp\libc.a
LOAD c:/st/stm32cubeide_1.10.1/stm32cubeide/plugins/com.st.stm32cube.ide.mcu.externaltools.gnu-tools-for-stm32.10.3-2021.10.win32_1.0.0.202111181127/tools/bin/../lib/gcc/arm-none-eabi/10.3.1/../../../../arm-none-eabi/lib/thumb/v7e-m/nofp\libm.a
LOAD c:/st/stm32cubeide_1.10.1/stm32cubeide/plugins/com.st.stm32cube.ide.mcu.externaltools.gnu-tools-for-stm32.10.3-2021.10.win32_1.0.0.202111181127/tools/bin/../lib/gcc/arm-none-eabi/10.3.1/thumb/v7e-m/nofp\libgcc.a

.debug_info     0x0000000000000000     0x27ce
 .debug_info    0x0000000000000000      0xdc6 ./app/src/main.o
 .debug_info    0x0000000000000dc6       0x22 ./app/statup_stm32f303re.o
 .debug_info    0x0000000000000de8      0x7b3 ./display/display.o
 .debug_info    0x000000000000159b      0x174 ./display/fonts.o
 .debug_info    0x000000000000170f      0x3f7 ./driver/src/gpio.o
 .debug_info    0x0000000000001b06      0x4a5 ./driver/src/i2c.o
 .debug_info    0x0000000000001fab      0x451 ./keypad/keypad.o
 .debug_info    0x00000000000023fc      0x3d2 ./rtc/rtc.o

.debug_abbrev   0x0000000000000000      0xb8d
 .debug_abbrev  0x0000000000000000      0x2de ./app/src/main.o
 .debug_abbrev  0x00000000000002de       0x12 ./app/statup_stm32f303re.o
 .debug_abbrev  0x00000000000002f0      0x259 ./display/display.o
 .debug_abbrev  0x0000000000000549       0xad ./display/fonts.o
 .debug_abbrev  0x00000000000005f6      0x11b ./driver/src/gpio.o
 .debug_abbrev  0x0000000000000711      0x175 ./driver/src/i2c.o
 .debug_abbrev  0x0000000000000886      0x175 ./keypad/keypad.o
 .debug_abbrev  0x00000000000009fb      0x192 ./rtc/rtc.o

.debug_aranges  0x0000000000000000      0x200
 .debug_aranges
                0x0000000000000000       0x48 ./app/src/main.o
 .debug_aranges
                0x0000000000000048       0x28 ./app/statup_stm32f303re.o
 .debug_aranges
                0x0000000000000070       0x88 ./display/display.o
 .debug_aranges
                0x00000000000000f8       0x18 ./display/fonts.o
 .debug_aranges
                0x0000000000000110       0x38 ./driver/src/gpio.o
 .debug_aranges
                0x0000000000000148       0x38 ./driver/src/i2c.o
 .debug_aranges
                0x0000000000000180       0x38 ./keypad/keypad.o
 .debug_aranges
                0x00000000000001b8       0x48 ./rtc/rtc.o

.debug_ranges   0x0000000000000000      0x180
 .debug_ranges  0x0000000000000000       0x38 ./app/src/main.o
 .debug_ranges  0x0000000000000038       0x20 ./app/statup_stm32f303re.o
 .debug_ranges  0x0000000000000058       0x78 ./display/display.o
 .debug_ranges  0x00000000000000d0       0x28 ./driver/src/gpio.o
 .debug_ranges  0x00000000000000f8       0x28 ./driver/src/i2c.o
 .debug_ranges  0x0000000000000120       0x28 ./keypad/keypad.o
 .debug_ranges  0x0000000000000148       0x38 ./rtc/rtc.o

.debug_macro    0x0000000000000000    0x188a0
 .debug_macro   0x0000000000000000      0x233 ./app/src/main.o
 .debug_macro   0x0000000000000233      0xa5a ./app/src/main.o
 .debug_macro   0x0000000000000c8d       0x28 ./app/src/main.o
 .debug_macro   0x0000000000000cb5       0x22 ./app/src/main.o
 .debug_macro   0x0000000000000cd7       0x8e ./app/src/main.o
 .debug_macro   0x0000000000000d65       0x51 ./app/src/main.o
 .debug_macro   0x0000000000000db6      0x103 ./app/src/main.o
 .debug_macro   0x0000000000000eb9       0x6a ./app/src/main.o
 .debug_macro   0x0000000000000f23      0x1df ./app/src/main.o
 .debug_macro   0x0000000000001102       0x1c ./app/src/main.o
 .debug_macro   0x000000000000111e       0x22 ./app/src/main.o
 .debug_macro   0x0000000000001140       0xd9 ./app/src/main.o
 .debug_macro   0x0000000000001219     0x102d ./app/src/main.o
 .debug_macro   0x0000000000002246      0x11f ./app/src/main.o
 .debug_macro   0x0000000000002365    0x1535a ./app/src/main.o
 .debug_macro   0x00000000000176bf       0x2e ./app/src/main.o
 .debug_macro   0x00000000000176ed       0x34 ./app/src/main.o
 .debug_macro   0x0000000000017721       0x6d ./app/src/main.o
 .debug_macro   0x000000000001778e       0x34 ./app/src/main.o
 .debug_macro   0x00000000000177c2       0x52 ./app/src/main.o
 .debug_macro   0x0000000000017814       0x18 ./app/src/main.o
 .debug_macro   0x000000000001782c       0x3c ./app/src/main.o
 .debug_macro   0x0000000000017868       0x34 ./app/src/main.o
 .debug_macro   0x000000000001789c      0x174 ./app/src/main.o
 .debug_macro   0x0000000000017a10       0x16 ./app/src/main.o
 .debug_macro   0x0000000000017a26       0x43 ./app/src/main.o
 .debug_macro   0x0000000000017a69       0x34 ./app/src/main.o
 .debug_macro   0x0000000000017a9d       0x10 ./app/src/main.o
 .debug_macro   0x0000000000017aad       0x58 ./app/src/main.o
 .debug_macro   0x0000000000017b05       0x71 ./app/src/main.o
 .debug_macro   0x0000000000017b76       0x1c ./app/src/main.o
 .debug_macro   0x0000000000017b92      0x12a ./app/src/main.o
 .debug_macro   0x0000000000017cbc      0x341 ./app/src/main.o
 .debug_macro   0x0000000000017ffd       0x10 ./app/src/main.o
 .debug_macro   0x000000000001800d       0x35 ./app/src/main.o
 .debug_macro   0x0000000000018042       0x20 ./app/src/main.o
 .debug_macro   0x0000000000018062       0x10 ./app/src/main.o
 .debug_macro   0x0000000000018072       0x16 ./app/src/main.o
 .debug_macro   0x0000000000018088       0x16 ./app/src/main.o
 .debug_macro   0x000000000001809e       0x29 ./app/src/main.o
 .debug_macro   0x00000000000180c7       0x16 ./app/src/main.o
 .debug_macro   0x00000000000180dd       0x64 ./app/src/main.o
 .debug_macro   0x0000000000018141      0x22a ./display/display.o
 .debug_macro   0x000000000001836b      0x1a5 ./display/fonts.o
 .debug_macro   0x0000000000018510       0xd6 ./driver/src/gpio.o
 .debug_macro   0x00000000000185e6       0xe0 ./driver/src/i2c.o
 .debug_macro   0x00000000000186c6       0x28 ./driver/src/i2c.o
 .debug_macro   0x00000000000186ee       0xec ./keypad/keypad.o
 .debug_macro   0x00000000000187da       0xc6 ./rtc/rtc.o

.debug_line     0x0000000000000000     0x31ab
 .debug_line    0x0000000000000000      0x8d0 ./app/src/main.o
 .debug_line    0x00000000000008d0       0x78 ./app/statup_stm32f303re.o
 .debug_line    0x0000000000000948      0xa69 ./display/display.o
 .debug_line    0x00000000000013b1      0x5aa ./display/fonts.o
 .debug_line    0x000000000000195b      0x5a8 ./driver/src/gpio.o
 .debug_line    0x0000000000001f03      0x6f0 ./driver/src/i2c.o
 .debug_line    0x00000000000025f3      0x5e9 ./keypad/keypad.o
 .debug_line    0x0000000000002bdc      0x5cf ./rtc/rtc.o

.debug_str      0x0000000000000000    0x86eb5
 .debug_str     0x0000000000000000    0x8692f ./app/src/main.o
                                      0x86ca0 (size before relaxing)
 .debug_str     0x000000000008692f       0x2a ./app/statup_stm32f303re.o
                                         0x84 (size before relaxing)
 .debug_str     0x0000000000086959      0x30c ./display/display.o
                                      0x86488 (size before relaxing)
 .debug_str     0x0000000000086c65       0x1c ./display/fonts.o
                                      0x85f64 (size before relaxing)
 .debug_str     0x0000000000086c81       0x39 ./driver/src/gpio.o
                                      0x83028 (size before relaxing)
 .debug_str     0x0000000000086cba       0x40 ./driver/src/i2c.o
                                      0x82f41 (size before relaxing)
 .debug_str     0x0000000000086cfa       0xd9 ./keypad/keypad.o
                                      0x830d0 (size before relaxing)
 .debug_str     0x0000000000086dd3       0xe2 ./rtc/rtc.o
                                      0x82966 (size before relaxing)

.comment        0x0000000000000000       0x50
 .comment       0x0000000000000000       0x50 ./app/src/main.o
                                         0x51 (size before relaxing)
 .comment       0x0000000000000050       0x51 ./display/display.o
 .comment       0x0000000000000050       0x51 ./display/fonts.o
 .comment       0x0000000000000050       0x51 ./driver/src/gpio.o
 .comment       0x0000000000000050       0x51 ./driver/src/i2c.o
 .comment       0x0000000000000050       0x51 ./keypad/keypad.o
 .comment       0x0000000000000050       0x51 ./rtc/rtc.o

.debug_frame    0x0000000000000000      0x634
 .debug_frame   0x0000000000000000       0xd8 ./app/src/main.o
 .debug_frame   0x00000000000000d8      0x228 ./display/display.o
 .debug_frame   0x0000000000000300       0xb0 ./driver/src/gpio.o
 .debug_frame   0x00000000000003b0       0xa8 ./driver/src/i2c.o
 .debug_frame   0x0000000000000458       0xa8 ./keypad/keypad.o
 .debug_frame   0x0000000000000500       0xe8 ./rtc/rtc.o
 .debug_frame   0x00000000000005e8       0x2c c:/st/stm32cubeide_1.10.1/stm32cubeide/plugins/com.st.stm32cube.ide.mcu.externaltools.gnu-tools-for-stm32.10.3-2021.10.win32_1.0.0.202111181127/tools/bin/../lib/gcc/arm-none-eabi/10.3.1/../../../../arm-none-eabi/lib/thumb/v7e-m/nofp\libc_nano.a(lib_a-init.o)
 .debug_frame   0x0000000000000614       0x20 c:/st/stm32cubeide_1.10.1/stm32cubeide/plugins/com.st.stm32cube.ide.mcu.externaltools.gnu-tools-for-stm32.10.3-2021.10.win32_1.0.0.202111181127/tools/bin/../lib/gcc/arm-none-eabi/10.3.1/../../../../arm-none-eabi/lib/thumb/v7e-m/nofp\libc_nano.a(lib_a-memset.o)
